target datalayout = "e-m:e-p270:32:32-p271:32:32-p272:64:64-i64:64-i128:128-f80:128-n8:16:32:64-S128"
target triple = "x86_64-pc-linux-gnu"

%struct.avifCodecDecodeInput = type { %struct.avifDecodeSampleArray, i32, i32 }
%struct.avifDecodeSampleArray = type { ptr, i32, i32, i32 }

; Function Attrs: nounwind uwtable
define hidden ptr @avifCodecDecodeInputCreate() #0 {
  %1 = alloca ptr, align 8
  %2 = alloca ptr, align 8
  %3 = call ptr @avifAlloc(i64 noundef 32)
  store ptr %3, ptr %2, align 8
  %4 = load ptr, ptr %2, align 8
  %5 = icmp eq ptr %4, null
  br i1 %5, label %6, label %7

6:                                                ; preds = %0
  store ptr null, ptr %1, align 8
  br label %17

7:                                                ; preds = %0
  %8 = load ptr, ptr %2, align 8
  call void @llvm.memset.p0.i64(ptr align 8 %8, i8 0, i64 32, i1 false)
  %9 = load ptr, ptr %2, align 8
  %10 = getelementptr inbounds nuw %struct.avifCodecDecodeInput, ptr %9, i32 0, i32 0
  %11 = call i32 @avifArrayCreate(ptr noundef %10, i32 noundef 56, i32 noundef 1)
  %12 = icmp ne i32 %11, 0
  br i1 %12, label %15, label %13

13:                                               ; preds = %7
  %14 = load ptr, ptr %2, align 8
  call void @avifFree(ptr noundef %14)
  store ptr null, ptr %1, align 8
  br label %17

15:                                               ; preds = %7
  %16 = load ptr, ptr %2, align 8
  store ptr %16, ptr %1, align 8
  br label %17

17:                                               ; preds = %15, %13, %6
  %18 = load ptr, ptr %1, align 8
  ret ptr %18
}