; Function Attrs: nounwind uwtable
define hidden ptr @avifCodecDecodeInputCreate() local_unnamed_addr #0 {
  %1 = tail call ptr @avifAlloc(i64 noundef 32) #13
  %2 = icmp eq ptr %1, null
  br i1 %2, label %6, label %3

3:                                                ; preds = %0
  tail call void @llvm.memset.p0.i64(ptr noundef nonnull align 8 dereferenceable(32) %1, i8 0, i64 32, i1 false)
  %4 = tail call i32 @avifArrayCreate(ptr noundef nonnull %1, i32 noundef 56, i32 noundef 1) #13
  %.not = icmp eq i32 %4, 0
  br i1 %.not, label %5, label %6

5:                                                ; preds = %3
  tail call void @avifFree(ptr noundef nonnull %1) #13
  br label %6

6:                                                ; preds = %3, %0, %5
  %.0 = phi ptr [ null, %5 ], [ null, %0 ], [ %1, %3 ]
  ret ptr %.0
}